; Function Attrs: mustprogress uwtable
define void @_ZN3nix11RemoteStore18queryAllValidPathsEv(ptr dead_on_unwind noalias writable sret(%"class.std::set.148") align 8 %0, ptr noundef nonnull align 8 dereferenceable(25) %1) unnamed_addr #5 align 2 personality ptr @__gxx_personality_v0 {
  %3 = alloca [8 x i8], align 1
  %4 = alloca %"struct.nix::RemoteStore::ConnectionHandle", align 8
  call void @_ZN3nix11RemoteStore13getConnectionEv(ptr dead_on_unwind nonnull writable sret(%"struct.nix::RemoteStore::ConnectionHandle") align 8 %4, ptr noundef nonnull align 8 dereferenceable(25) %1)
  %5 = getelementptr inbounds i8, ptr %4, i64 8
  %6 = load ptr, ptr %5, align 8
  %7 = getelementptr inbounds i8, ptr %6, i64 8
  %8 = load ptr, ptr %7, align 8
  %9 = getelementptr i8, ptr %8, i64 -48
  %10 = load i64, ptr %9, align 8
  %11 = getelementptr inbounds i8, ptr %7, i64 %10
  call void @llvm.lifetime.start.p0(i64 8, ptr nonnull %3)
  store i8 23, ptr %3, align 1
  %12 = getelementptr inbounds i8, ptr %3, i64 1
  call void @llvm.memset.p0.i64(ptr noundef nonnull align 1 dereferenceable(7) %12, i8 0, i64 7, i1 false)
  %13 = load ptr, ptr %11, align 8
  %14 = getelementptr inbounds i8, ptr %13, i64 16
  %15 = load ptr, ptr %14, align 8
  invoke void %15(ptr noundef nonnull align 8 dereferenceable(8) %11, i64 8, ptr nonnull %3)
          to label %16 unwind label %26

16:                                               ; preds = %2
  call void @llvm.lifetime.end.p0(i64 8, ptr nonnull %3)
  invoke void @_ZN3nix11RemoteStore16ConnectionHandle13processStderrEPNS_4SinkEPNS_6SourceEb(ptr noundef nonnull align 8 dereferenceable(33) %4, ptr noundef null, ptr noundef null, i1 noundef zeroext true)
          to label %17 unwind label %26

17:                                               ; preds = %16
  %18 = load ptr, ptr %1, align 8
  %19 = getelementptr i8, ptr %18, i64 -32
  %20 = load i64, ptr %19, align 8
  %21 = load ptr, ptr %5, align 8
  %22 = getelementptr inbounds i8, ptr %1, i64 %20
  %23 = getelementptr inbounds i8, ptr %21, i64 64
  %24 = getelementptr inbounds i8, ptr %21, i64 168
  %25 = load i32, ptr %24, align 8
  invoke void @_ZN3nix25LengthPrefixedProtoHelperINS_11WorkerProtoESt3setINS_9StorePathESt4lessIS3_ESaIS3_EEE4readERKNS_14StoreDirConfigENS1_8ReadConnE(ptr dead_on_unwind writable sret(%"class.std::set.148") align 8 %0, ptr noundef nonnull align 8 dereferenceable(344) %22, ptr nonnull %23, i32 %25)
          to label %_ZN3nix11WorkerProto9SerialiseISt3setINS_9StorePathESt4lessIS3_ESaIS3_EEE4readERKNS_14StoreDirConfigENS0_8ReadConnE.exit unwind label %26

_ZN3nix11WorkerProto9SerialiseISt3setINS_9StorePathESt4lessIS3_ESaIS3_EEE4readERKNS_14StoreDirConfigENS0_8ReadConnE.exit: ; preds = %17
  call void @_ZN3nix11RemoteStore16ConnectionHandleD1Ev(ptr noundef nonnull align 8 dereferenceable(33) %4) #29
  ret void

26:                                               ; preds = %17, %2, %16
  %27 = landingpad { ptr, i32 }
          cleanup
  call void @_ZN3nix11RemoteStore16ConnectionHandleD1Ev(ptr noundef nonnull align 8 dereferenceable(33) %4) #29
  resume { ptr, i32 } %27
}